ccopy_reg
_reconstructor
p0
(cgoogle.oauth2.credentials
Credentials
p1
c__builtin__
object
p2
Ntp3
Rp4
(dp5
S'_token_uri'
p6
Vhttps://oauth2.googleapis.com/token
p7
sS'_scopes'
p8
(lp9
S'https://www.googleapis.com/auth/calendar'
p10
asS'_id_token'
p11
NsS'token'
p12
Vya29.GlyqBgRKZmp-xUTBu4vASBnatDZzpc54qI0Pisr-0JsGHcLNOu0VQSD3MQzvz-DY-GH33MRWkkJRzJwnHsBmDEVUORIn8BkjPQrIK4GptAgawj6FF_saH8ydvD3drg
p13
sS'_refresh_token'
p14
V1/t58GAhyefpSSCGWmsnl7-Qu2EvRhrWQOC13XHr2tPWA
p15
sS'_client_secret'
p16
VfK0gYSBnWbafr9K7QGZpA474
p17
sS'_client_id'
p18
V223484924901-bvmh8gt4naq4g330b9qphu8ghe0588up.apps.googleusercontent.com
p19
sS'expiry'
p20
cdatetime
datetime
p21
(S'\x07\xe3\x02\x08\x065\x04\x026\xa5'
p22
tp23
Rp24
sb.